target datalayout = "e-m:e-p270:32:32-p271:32:32-p272:64:64-i64:64-i128:128-f80:128-n8:16:32:64-S128"
target triple = "x86_64-pc-linux-gnu"

%"class.google::protobuf::io::ZeroCopyInputStream" = type { ptr }
%"class.google::protobuf::io::LimitingInputStream" = type { %"class.google::protobuf::io::ZeroCopyInputStream", ptr, i64, i64 }

; Function Attrs: mustprogress uwtable
define noundef zeroext i1 @_ZN6google8protobuf2io19LimitingInputStream4NextEPPKvPi(ptr noundef nonnull align 8 dereferenceable(32) %0, ptr noundef %1, ptr noundef %2) unnamed_addr #4 align 2 {
  %4 = alloca i1, align 1
  %5 = alloca ptr, align 8
  %6 = alloca ptr, align 8
  %7 = alloca ptr, align 8
  store ptr %0, ptr %5, align 8
  store ptr %1, ptr %6, align 8
  store ptr %2, ptr %7, align 8
  %8 = load ptr, ptr %5, align 8
  %9 = getelementptr inbounds %"class.google::protobuf::io::LimitingInputStream", ptr %8, i32 0, i32 2
  %10 = load i64, ptr %9, align 8
  %11 = icmp sle i64 %10, 0
  br i1 %11, label %12, label %13

12:                                               ; preds = %3
  store i1 false, ptr %4, align 1
  br label %42

13:                                               ; preds = %3
  %14 = getelementptr inbounds %"class.google::protobuf::io::LimitingInputStream", ptr %8, i32 0, i32 1
  %15 = load ptr, ptr %14, align 8
  %16 = load ptr, ptr %6, align 8
  %17 = load ptr, ptr %7, align 8
  %18 = load ptr, ptr %15, align 8
  %19 = getelementptr inbounds ptr, ptr %18, i64 2
  %20 = load ptr, ptr %19, align 8
  %21 = call noundef zeroext i1 %20(ptr noundef nonnull align 8 dereferenceable(8) %15, ptr noundef %16, ptr noundef %17)
  br i1 %21, label %23, label %22

22:                                               ; preds = %13
  store i1 false, ptr %4, align 1
  br label %42

23:                                               ; preds = %13
  %24 = load ptr, ptr %7, align 8
  %25 = load i32, ptr %24, align 4
  %26 = sext i32 %25 to i64
  %27 = getelementptr inbounds %"class.google::protobuf::io::LimitingInputStream", ptr %8, i32 0, i32 2
  %28 = load i64, ptr %27, align 8
  %29 = sub nsw i64 %28, %26
  store i64 %29, ptr %27, align 8
  %30 = getelementptr inbounds %"class.google::protobuf::io::LimitingInputStream", ptr %8, i32 0, i32 2
  %31 = load i64, ptr %30, align 8
  %32 = icmp slt i64 %31, 0
  br i1 %32, label %33, label %41

33:                                               ; preds = %23
  %34 = getelementptr inbounds %"class.google::protobuf::io::LimitingInputStream", ptr %8, i32 0, i32 2
  %35 = load i64, ptr %34, align 8
  %36 = load ptr, ptr %7, align 8
  %37 = load i32, ptr %36, align 4
  %38 = sext i32 %37 to i64
  %39 = add nsw i64 %38, %35
  %40 = trunc i64 %39 to i32
  store i32 %40, ptr %36, align 4
  br label %41

41:                                               ; preds = %33, %23
  store i1 true, ptr %4, align 1
  br label %42

42:                                               ; preds = %41, %22, %12
  %43 = load i1, ptr %4, align 1
  ret i1 %43
}