; Function Attrs: mustprogress uwtable
define noundef zeroext i1 @_ZN6google8protobuf2io19LimitingInputStream4NextEPPKvPi(ptr nocapture noundef nonnull align 8 dereferenceable(32) %0, ptr noundef %1, ptr noundef %2) unnamed_addr #5 align 2 {
  %4 = getelementptr inbounds i8, ptr %0, i64 16
  %5 = load i64, ptr %4, align 8
  %6 = icmp slt i64 %5, 1
  br i1 %6, label %24, label %7

7:                                                ; preds = %3
  %8 = getelementptr inbounds i8, ptr %0, i64 8
  %9 = load ptr, ptr %8, align 8
  %10 = load ptr, ptr %9, align 8
  %11 = getelementptr inbounds i8, ptr %10, i64 16
  %12 = load ptr, ptr %11, align 8
  %13 = tail call noundef zeroext i1 %12(ptr noundef nonnull align 8 dereferenceable(8) %9, ptr noundef %1, ptr noundef %2)
  br i1 %13, label %14, label %24

14:                                               ; preds = %7
  %15 = load i32, ptr %2, align 4
  %16 = sext i32 %15 to i64
  %17 = load i64, ptr %4, align 8
  %18 = sub nsw i64 %17, %16
  store i64 %18, ptr %4, align 8
  %19 = icmp slt i64 %18, 0
  br i1 %19, label %20, label %24

20:                                               ; preds = %14
  %21 = load i32, ptr %2, align 4
  %22 = trunc i64 %18 to i32
  %23 = add i32 %21, %22
  store i32 %23, ptr %2, align 4
  br label %24

24:                                               ; preds = %14, %20, %7, %3
  %.0 = phi i1 [ false, %3 ], [ false, %7 ], [ true, %20 ], [ true, %14 ]
  ret i1 %.0
}